target datalayout = "e-m:e-p270:32:32-p271:32:32-p272:64:64-i64:64-i128:128-f80:128-n8:16:32:64-S128"
target triple = "x86_64-pc-linux-gnu"

%"class.igl::opengl::ViewerCore" = type { i32, [12 x i8], %"class.Eigen::Matrix.3", %"class.Eigen::Matrix.12", i8, i8, i32, i32, i32, i32, i32, float, i32, [4 x i8], %"class.Eigen::Quaternion", float, float, i8, %"class.Eigen::Matrix.12", %"class.Eigen::Matrix.12", %"class.Eigen::Matrix.12", %"class.Eigen::Matrix.12", %"class.Eigen::Matrix.12", float, float, float, i8, i8, double, float, [12 x i8], %"class.Eigen::Matrix.3", %"class.Eigen::Matrix.22", %"class.Eigen::Matrix.22", %"class.Eigen::Matrix.22", %"class.Eigen::Matrix.22", %"class.Eigen::Matrix.22" }
%"class.Eigen::Quaternion" = type { %"class.Eigen::Matrix.3" }
%"class.Eigen::Matrix.12" = type { %"class.Eigen::PlainObjectBase.13" }
%"class.Eigen::PlainObjectBase.13" = type { %"class.Eigen::DenseStorage.20" }
%"class.Eigen::DenseStorage.20" = type { %"struct.Eigen::internal::plain_array.21" }
%"struct.Eigen::internal::plain_array.21" = type { [3 x float] }
%"class.Eigen::Matrix.3" = type { %"class.Eigen::PlainObjectBase.4" }
%"class.Eigen::PlainObjectBase.4" = type { %"class.Eigen::DenseStorage.11" }
%"class.Eigen::DenseStorage.11" = type { %"struct.Eigen::internal::plain_array" }
%"struct.Eigen::internal::plain_array" = type { [4 x float] }
%"class.Eigen::Matrix.22" = type { %"class.Eigen::PlainObjectBase.23" }
%"class.Eigen::PlainObjectBase.23" = type { %"class.Eigen::DenseStorage.30" }
%"class.Eigen::DenseStorage.30" = type { %"struct.Eigen::internal::plain_array.31" }
%"struct.Eigen::internal::plain_array.31" = type { [16 x float] }

; Function Attrs: mustprogress nounwind uwtable
define linkonce_odr dso_local void @_ZN5Eigen9DenseBaseINS_6MatrixIfLi4ELi1ELi0ELi4ELi1EEEEC2Ev(ptr noundef nonnull align 1 dereferenceable(1) %0) unnamed_addr #1 comdat align 2 {
  %2 = alloca ptr, align 8
  store ptr %0, ptr %2, align 8, !tbaa !222
  ret void
}

; Function Attrs: mustprogress uwtable
define linkonce_odr dso_local void @_ZN5Eigen10MatrixBaseINS_6MatrixIfLi4ELi1ELi0ELi4ELi1EEEEC2Ev(ptr noundef nonnull align 1 dereferenceable(1) %0) unnamed_addr #3 comdat align 2 {
  %2 = alloca ptr, align 8
  store ptr %0, ptr %2, align 8, !tbaa !1532
  %3 = load ptr, ptr %2, align 8
  call void @_ZN5Eigen9DenseBaseINS_6MatrixIfLi4ELi1ELi0ELi4ELi1EEEEC2Ev(ptr noundef nonnull align 1 dereferenceable(1) %3)
  ret void
}

; Function Attrs: inlinehint mustprogress uwtable
define linkonce_odr dso_local void @_ZN5Eigen15PlainObjectBaseINS_6MatrixIfLi4ELi1ELi0ELi4ELi1EEEEC2ERKS3_(ptr noundef nonnull align 16 dereferenceable(16) %0, ptr noundef nonnull align 16 dereferenceable(16) %1) unnamed_addr #5 comdat align 2 {
  %3 = alloca ptr, align 8
  %4 = alloca ptr, align 8
  store ptr %0, ptr %3, align 8, !tbaa !244
  store ptr %1, ptr %4, align 8, !tbaa !244
  %5 = load ptr, ptr %3, align 8
  call void @_ZN5Eigen10MatrixBaseINS_6MatrixIfLi4ELi1ELi0ELi4ELi1EEEEC2Ev(ptr noundef nonnull align 1 dereferenceable(1) %5)
  %6 = getelementptr inbounds nuw %"class.Eigen::PlainObjectBase.4", ptr %5, i32 0, i32 0
  %7 = load ptr, ptr %4, align 8, !tbaa !244
  %8 = getelementptr inbounds nuw %"class.Eigen::PlainObjectBase.4", ptr %7, i32 0, i32 0
  call void @llvm.memcpy.p0.p0.i64(ptr align 16 %6, ptr align 16 %8, i64 16, i1 false), !tbaa.struct !1531
  ret void
}

; Function Attrs: inlinehint mustprogress uwtable
define linkonce_odr dso_local void @_ZN5Eigen6MatrixIfLi4ELi1ELi0ELi4ELi1EEC2ERKS1_(ptr noundef nonnull align 16 dereferenceable(16) %0, ptr noundef nonnull align 16 dereferenceable(16) %1) unnamed_addr #5 comdat align 2 {
  %3 = alloca ptr, align 8
  %4 = alloca ptr, align 8
  store ptr %0, ptr %3, align 8, !tbaa !220
  store ptr %1, ptr %4, align 8, !tbaa !220
  %5 = load ptr, ptr %3, align 8
  %6 = load ptr, ptr %4, align 8, !tbaa !220
  call void @_ZN5Eigen15PlainObjectBaseINS_6MatrixIfLi4ELi1ELi0ELi4ELi1EEEEC2ERKS3_(ptr noundef nonnull align 16 dereferenceable(16) %5, ptr noundef nonnull align 16 dereferenceable(16) %6)
  ret void
}

; Function Attrs: mustprogress uwtable
define linkonce_odr dso_local void @_ZN5Eigen10QuaternionIfLi0EEC2ERKS1_(ptr noundef nonnull align 16 dereferenceable(16) %0, ptr noundef nonnull align 16 dereferenceable(16) %1) unnamed_addr #3 comdat align 2 {
  %3 = alloca ptr, align 8
  %4 = alloca ptr, align 8
  store ptr %0, ptr %3, align 8, !tbaa !209
  store ptr %1, ptr %4, align 8, !tbaa !209
  %5 = load ptr, ptr %3, align 8
  %6 = getelementptr inbounds nuw %"class.Eigen::Quaternion", ptr %5, i32 0, i32 0
  %7 = load ptr, ptr %4, align 8, !tbaa !209
  %8 = getelementptr inbounds nuw %"class.Eigen::Quaternion", ptr %7, i32 0, i32 0
  call void @_ZN5Eigen6MatrixIfLi4ELi1ELi0ELi4ELi1EEC2ERKS1_(ptr noundef nonnull align 16 dereferenceable(16) %6, ptr noundef nonnull align 16 dereferenceable(16) %8)
  ret void
}

; Function Attrs: mustprogress uwtable
define dso_local void @_ZN3igl6opengl10ViewerCore17set_rotation_typeERKNS1_12RotationTypeE(ptr noundef nonnull align 16 dereferenceable(544) %0, ptr noundef nonnull align 4 dereferenceable(4) %1) #3 align 2 {
  %3 = alloca ptr, align 8
  %4 = alloca ptr, align 8
  %5 = alloca i32, align 4
  %6 = alloca %"class.Eigen::Quaternion", align 16
  store ptr %0, ptr %3, align 8, !tbaa !15
  store ptr %1, ptr %4, align 8, !tbaa !89
  %7 = load ptr, ptr %3, align 8
  call void @llvm.lifetime.start.p0(i64 4, ptr %5) #20
  %8 = getelementptr inbounds nuw %"class.igl::opengl::ViewerCore", ptr %7, i32 0, i32 12
  %9 = load i32, ptr %8, align 8, !tbaa !233
  store i32 %9, ptr %5, align 4, !tbaa !234
  %10 = load ptr, ptr %4, align 8, !tbaa !89
  %11 = load i32, ptr %10, align 4, !tbaa !234
  %12 = getelementptr inbounds nuw %"class.igl::opengl::ViewerCore", ptr %7, i32 0, i32 12
  store i32 %11, ptr %12, align 8, !tbaa !233
  %13 = getelementptr inbounds nuw %"class.igl::opengl::ViewerCore", ptr %7, i32 0, i32 12
  %14 = load i32, ptr %13, align 8, !tbaa !233
  %15 = icmp eq i32 %14, 1
  br i1 %15, label %16, label %22

16:                                               ; preds = %2
  %17 = load i32, ptr %5, align 4, !tbaa !234
  %18 = icmp ne i32 %17, 1
  br i1 %18, label %19, label %22

19:                                               ; preds = %16
  call void @llvm.lifetime.start.p0(i64 16, ptr %6) #20
  %20 = getelementptr inbounds nuw %"class.igl::opengl::ViewerCore", ptr %7, i32 0, i32 14
  call void @_ZN5Eigen10QuaternionIfLi0EEC2ERKS1_(ptr noundef nonnull align 16 dereferenceable(16) %6, ptr noundef nonnull align 16 dereferenceable(16) %20)
  %21 = getelementptr inbounds nuw %"class.igl::opengl::ViewerCore", ptr %7, i32 0, i32 14
  call void @_ZN3igl16snap_to_fixed_upIfEEvRKN5Eigen10QuaternionIT_Li0EEERS4_(ptr noundef nonnull align 16 dereferenceable(16) %6, ptr noundef nonnull align 16 dereferenceable(16) %21)
  call void @llvm.lifetime.end.p0(i64 16, ptr %6) #20
  br label %22

22:                                               ; preds = %19, %16, %2
  call void @llvm.lifetime.end.p0(i64 4, ptr %5) #20
  ret void
}