; Function Attrs: mustprogress uwtable
define dso_local void @_ZN3igl6opengl10ViewerCore17set_rotation_typeERKNS1_12RotationTypeE(ptr noundef nonnull align 16 dereferenceable(544) %0, ptr noundef nonnull readonly align 4 captures(none) dereferenceable(4) %1) local_unnamed_addr #3 align 2 {
  %3 = alloca %"class.Eigen::Quaternion", align 16
  %4 = getelementptr inbounds nuw i8, ptr %0, i64 72
  %5 = load i32, ptr %4, align 8, !tbaa !162
  %6 = load i32, ptr %1, align 4, !tbaa !163
  store i32 %6, ptr %4, align 8, !tbaa !162
  %7 = icmp eq i32 %6, 1
  %8 = icmp ne i32 %5, 1
  %or.cond = select i1 %7, i1 %8, i1 false
  br i1 %or.cond, label %9, label %11

9:                                                ; preds = %2
  call void @llvm.lifetime.start.p0(i64 16, ptr nonnull %3) #20
  %10 = getelementptr inbounds nuw i8, ptr %0, i64 80
  call void @llvm.memcpy.p0.p0.i64(ptr noundef nonnull align 16 dereferenceable(16) %3, ptr noundef nonnull align 16 dereferenceable(16) %10, i64 16, i1 false), !tbaa.struct !164
  call void @_ZN3igl16snap_to_fixed_upIfEEvRKN5Eigen10QuaternionIT_Li0EEERS4_(ptr noundef nonnull align 16 dereferenceable(16) %3, ptr noundef nonnull align 16 dereferenceable(16) %10)
  call void @llvm.lifetime.end.p0(i64 16, ptr nonnull %3) #20
  br label %11

11:                                               ; preds = %9, %2
  ret void
}